target datalayout = "e-m:e-p270:32:32-p271:32:32-p272:64:64-i64:64-i128:128-f80:128-n8:16:32:64-S128"
target triple = "x86_64-pc-linux-gnu"

%struct.avifCodecDecodeInput = type { %struct.avifDecodeSampleArray, i32, i32 }
%struct.avifDecodeSampleArray = type { ptr, i32, i32, i32 }
%struct.avifDecodeSample = type { %struct.avifROData, i32, i32, i32, i64, i64, i8, i32 }
%struct.avifROData = type { ptr, i64 }

; Function Attrs: nounwind uwtable
define hidden void @avifCodecDecodeInputDestroy(ptr noundef %0) #0 {
  %2 = alloca ptr, align 8
  %3 = alloca i32, align 4
  %4 = alloca ptr, align 8
  store ptr %0, ptr %2, align 8
  store i32 0, ptr %3, align 4
  br label %5

5:                                                ; preds = %28, %1
  %6 = load i32, ptr %3, align 4
  %7 = load ptr, ptr %2, align 8
  %8 = getelementptr inbounds nuw %struct.avifCodecDecodeInput, ptr %7, i32 0, i32 0
  %9 = getelementptr inbounds nuw %struct.avifDecodeSampleArray, ptr %8, i32 0, i32 2
  %10 = load i32, ptr %9, align 4
  %11 = icmp ult i32 %6, %10
  br i1 %11, label %12, label %31

12:                                               ; preds = %5
  %13 = load ptr, ptr %2, align 8
  %14 = getelementptr inbounds nuw %struct.avifCodecDecodeInput, ptr %13, i32 0, i32 0
  %15 = getelementptr inbounds nuw %struct.avifDecodeSampleArray, ptr %14, i32 0, i32 0
  %16 = load ptr, ptr %15, align 8
  %17 = load i32, ptr %3, align 4
  %18 = zext i32 %17 to i64
  %19 = getelementptr inbounds %struct.avifDecodeSample, ptr %16, i64 %18
  store ptr %19, ptr %4, align 8
  %20 = load ptr, ptr %4, align 8
  %21 = getelementptr inbounds nuw %struct.avifDecodeSample, ptr %20, i32 0, i32 1
  %22 = load i32, ptr %21, align 8
  %23 = icmp ne i32 %22, 0
  br i1 %23, label %24, label %27

24:                                               ; preds = %12
  %25 = load ptr, ptr %4, align 8
  %26 = getelementptr inbounds nuw %struct.avifDecodeSample, ptr %25, i32 0, i32 0
  call void @avifRWDataFree(ptr noundef %26)
  br label %27

27:                                               ; preds = %24, %12
  br label %28

28:                                               ; preds = %27
  %29 = load i32, ptr %3, align 4
  %30 = add i32 %29, 1
  store i32 %30, ptr %3, align 4
  br label %5, !llvm.loop !4

31:                                               ; preds = %5
  %32 = load ptr, ptr %2, align 8
  %33 = getelementptr inbounds nuw %struct.avifCodecDecodeInput, ptr %32, i32 0, i32 0
  call void @avifArrayDestroy(ptr noundef %33)
  %34 = load ptr, ptr %2, align 8
  call void @avifFree(ptr noundef %34)
  ret void
}