; Function Attrs: nounwind uwtable
define hidden void @avifCodecDecodeInputDestroy(ptr noundef %0) local_unnamed_addr #0 {
  %2 = getelementptr inbounds nuw i8, ptr %0, i64 12
  %3 = load i32, ptr %2, align 4
  %.not9 = icmp eq i32 %3, 0
  br i1 %.not9, label %._crit_edge, label %.lr.ph

.lr.ph:                                           ; preds = %1, %10
  %4 = phi i32 [ %11, %10 ], [ %3, %1 ]
  %indvars.iv = phi i64 [ %indvars.iv.next, %10 ], [ 0, %1 ]
  %5 = load ptr, ptr %0, align 8
  %6 = getelementptr inbounds nuw %struct.avifDecodeSample, ptr %5, i64 %indvars.iv
  %7 = getelementptr inbounds nuw i8, ptr %6, i64 16
  %8 = load i32, ptr %7, align 8
  %.not = icmp eq i32 %8, 0
  br i1 %.not, label %10, label %9

9:                                                ; preds = %.lr.ph
  tail call void @avifRWDataFree(ptr noundef nonnull %6) #13
  %.pre = load i32, ptr %2, align 4
  br label %10

10:                                               ; preds = %.lr.ph, %9
  %11 = phi i32 [ %4, %.lr.ph ], [ %.pre, %9 ]
  %indvars.iv.next = add nuw nsw i64 %indvars.iv, 1
  %12 = zext i32 %11 to i64
  %13 = icmp samesign ult i64 %indvars.iv.next, %12
  br i1 %13, label %.lr.ph, label %._crit_edge, !llvm.loop !4

._crit_edge:                                      ; preds = %10, %1
  tail call void @avifArrayDestroy(ptr noundef nonnull %0) #13
  tail call void @avifFree(ptr noundef nonnull %0) #13
  ret void
}